; Function Attrs: mustprogress uwtable
define internal fastcc void @"_ZSt21__inplace_stable_sortIN9__gnu_cxx17__normal_iteratorIPmSt6vectorImSaImEEEENS0_5__ops15_Iter_comp_iterIZN7xgboost6common16WeightedQuantileINSA_18IndexTransformIterIZZZNS9_3obj6detail18UpdateTreeLeafHostEPKNS9_7ContextERKS3_IiSaIiEEiRKNS9_8MetaInfoEfRKNS9_16HostDeviceVectorIfEEfPNS9_7RegTreeEENK3$_1clEvENKUlmE_clEmEUlmE_EENSC_IZZZNSE_18UpdateTreeLeafHostESH_SL_iSO_fSS_fSU_ENKSV_clEvENKSW_clEmEUlmE0_EEfEET1_SH_dT_S12_T0_EUlmmE_EEEvS12_S12_S13_"(ptr %0, ptr %1, ptr %2) unnamed_addr #3 {
  %4 = ptrtoint ptr %1 to i64
  %5 = ptrtoint ptr %0 to i64
  %6 = sub i64 %4, %5
  %7 = ashr exact i64 %6, 3
  %8 = icmp slt i64 %7, 15
  br i1 %8, label %common.ret, label %9

common.ret:                                       ; preds = %3
  tail call fastcc void @"_ZSt16__insertion_sortIN9__gnu_cxx17__normal_iteratorIPmSt6vectorImSaImEEEENS0_5__ops15_Iter_comp_iterIZN7xgboost6common16WeightedQuantileINSA_18IndexTransformIterIZZZNS9_3obj6detail18UpdateTreeLeafHostEPKNS9_7ContextERKS3_IiSaIiEEiRKNS9_8MetaInfoEfRKNS9_16HostDeviceVectorIfEEfPNS9_7RegTreeEENK3$_1clEvENKUlmE_clEmEUlmE_EENSC_IZZZNSE_18UpdateTreeLeafHostESH_SL_iSO_fSS_fSU_ENKSV_clEvENKSW_clEmEUlmE0_EEfEET1_SH_dT_S12_T0_EUlmmE_EEEvS12_S12_S13_"(ptr %0, ptr %1, ptr %2)
  br label %common.ret22

common.ret22:                                     ; preds = %9, %common.ret
  ret void

9:                                                ; preds = %3
  %10 = lshr i64 %7, 1
  %11 = getelementptr inbounds nuw i64, ptr %0, i64 %10
  tail call fastcc void @"_ZSt21__inplace_stable_sortIN9__gnu_cxx17__normal_iteratorIPmSt6vectorImSaImEEEENS0_5__ops15_Iter_comp_iterIZN7xgboost6common16WeightedQuantileINSA_18IndexTransformIterIZZZNS9_3obj6detail18UpdateTreeLeafHostEPKNS9_7ContextERKS3_IiSaIiEEiRKNS9_8MetaInfoEfRKNS9_16HostDeviceVectorIfEEfPNS9_7RegTreeEENK3$_1clEvENKUlmE_clEmEUlmE_EENSC_IZZZNSE_18UpdateTreeLeafHostESH_SL_iSO_fSS_fSU_ENKSV_clEvENKSW_clEmEUlmE0_EEfEET1_SH_dT_S12_T0_EUlmmE_EEEvS12_S12_S13_"(ptr %0, ptr %11, ptr %2)
  tail call fastcc void @"_ZSt21__inplace_stable_sortIN9__gnu_cxx17__normal_iteratorIPmSt6vectorImSaImEEEENS0_5__ops15_Iter_comp_iterIZN7xgboost6common16WeightedQuantileINSA_18IndexTransformIterIZZZNS9_3obj6detail18UpdateTreeLeafHostEPKNS9_7ContextERKS3_IiSaIiEEiRKNS9_8MetaInfoEfRKNS9_16HostDeviceVectorIfEEfPNS9_7RegTreeEENK3$_1clEvENKUlmE_clEmEUlmE_EENSC_IZZZNSE_18UpdateTreeLeafHostESH_SL_iSO_fSS_fSU_ENKSV_clEvENKSW_clEmEUlmE0_EEfEET1_SH_dT_S12_T0_EUlmmE_EEEvS12_S12_S13_"(ptr %11, ptr %1, ptr %2)
  %12 = ptrtoint ptr %11 to i64
  %13 = sub i64 %4, %12
  %14 = ashr exact i64 %13, 3
  tail call fastcc void @"_ZSt22__merge_without_bufferIN9__gnu_cxx17__normal_iteratorIPmSt6vectorImSaImEEEElNS0_5__ops15_Iter_comp_iterIZN7xgboost6common16WeightedQuantileINSA_18IndexTransformIterIZZZNS9_3obj6detail18UpdateTreeLeafHostEPKNS9_7ContextERKS3_IiSaIiEEiRKNS9_8MetaInfoEfRKNS9_16HostDeviceVectorIfEEfPNS9_7RegTreeEENK3$_1clEvENKUlmE_clEmEUlmE_EENSC_IZZZNSE_18UpdateTreeLeafHostESH_SL_iSO_fSS_fSU_ENKSV_clEvENKSW_clEmEUlmE0_EEfEET1_SH_dT_S12_T0_EUlmmE_EEEvS12_S12_S12_S13_S13_S11_"(ptr %0, ptr %11, ptr %1, i64 noundef %10, i64 noundef %14, ptr %2)
  br label %common.ret22
}